; Function Attrs: mustprogress nounwind uwtable
define dso_local void @_ZN4node4quic8Endpoint28SendImmediateConnectionCloseERKNS0_14PathDescriptorENS0_9QuicErrorE(ptr noundef nonnull align 8 dereferenceable(1520) %this, ptr noundef nonnull align 8 dereferenceable(40) %options, ptr noundef nonnull %reason) local_unnamed_addr #3 align 2 {
entry:
  %packet = alloca %"class.node::BaseObjectPtrImpl.412", align 8
  %agg.tmp = alloca %"class.node::BaseObjectPtrImpl.412", align 8
  %realm_.i = getelementptr inbounds i8, ptr %this, i64 16
  %0 = load ptr, ptr %realm_.i, align 8
  %env_.i.i = getelementptr inbounds i8, ptr %0, i64 176
  %1 = load ptr, ptr %env_.i.i, align 8
  %add.ptr = getelementptr inbounds i8, ptr %this, i64 56
  call void @_ZN4node4quic6Packet36CreateImmediateConnectionClosePacketEPNS_11EnvironmentEPNS1_8ListenerERKNS0_14PathDescriptorERKNS0_9QuicErrorE(ptr nonnull sret(%"class.node::BaseObjectPtrImpl.412") align 8 %packet, ptr noundef %1, ptr noundef nonnull %add.ptr, ptr noundef nonnull align 8 dereferenceable(40) %options, ptr noundef nonnull align 8 dereferenceable(88) %reason) #21
  %2 = load ptr, ptr %packet, align 8
  %cmp.i.not = icmp eq ptr %2, null
  br i1 %cmp.i.not, label %_ZN4node17BaseObjectPtrImplINS_4quic6PacketELb0EED2Ev.exit3, label %if.end

if.end:                                           ; preds = %entry
  %3 = ptrtoint ptr %2 to i64
  %ptr_.i = getelementptr inbounds i8, ptr %this, i64 88
  %4 = load ptr, ptr %ptr_.i, align 8
  %memptr.offset.i = getelementptr inbounds i8, ptr %4, i64 96
  %5 = load i64, ptr %memptr.offset.i, align 8
  %add.i = add i64 %5, 1
  store i64 %add.i, ptr %memptr.offset.i, align 8
  store i64 %3, ptr %agg.tmp, align 8
  store ptr null, ptr %packet, align 8
  call void @_ZN4node4quic8Endpoint4SendENS_17BaseObjectPtrImplINS0_6PacketELb0EEE(ptr noundef nonnull align 8 dereferenceable(1520) %this, ptr noundef nonnull %agg.tmp)
  call void @_ZN4node10BaseObject17decrease_refcountEv(ptr noundef nonnull align 8 dereferenceable(32) %2) #21
  %.pr = load ptr, ptr %packet, align 8
  %cmp.not.i1 = icmp eq ptr %.pr, null
  br i1 %cmp.not.i1, label %_ZN4node17BaseObjectPtrImplINS_4quic6PacketELb0EED2Ev.exit3, label %if.then.i2

if.then.i2:                                       ; preds = %if.end
  call void @_ZN4node10BaseObject17decrease_refcountEv(ptr noundef nonnull align 8 dereferenceable(32) %.pr) #21
  br label %_ZN4node17BaseObjectPtrImplINS_4quic6PacketELb0EED2Ev.exit3

_ZN4node17BaseObjectPtrImplINS_4quic6PacketELb0EED2Ev.exit3: ; preds = %entry, %if.end, %if.then.i2
  ret void
}